target datalayout = "e-m:e-p270:32:32-p271:32:32-p272:64:64-i64:64-i128:128-f80:128-n8:16:32:64-S128"
target triple = "x86_64-pc-linux-gnu"

%struct.timespec = type { i64, i64 }

; Function Attrs: nounwind uwtable
define hidden void @mbedtls_platform_zeroize(ptr noundef %0, i64 noundef %1) #0 {
  %3 = alloca ptr, align 8
  %4 = alloca i64, align 8
  store ptr %0, ptr %3, align 8, !tbaa !3
  store i64 %1, ptr %4, align 8, !tbaa !7
  %5 = load i64, ptr %4, align 8, !tbaa !7
  %6 = icmp ugt i64 %5, 0
  br i1 %6, label %7, label %11

7:                                                ; preds = %2
  %8 = load ptr, ptr %3, align 8, !tbaa !3
  %9 = load i64, ptr %4, align 8, !tbaa !7
  call void @explicit_bzero(ptr noundef %8, i64 noundef %9) #3
  %10 = load ptr, ptr %3, align 8, !tbaa !3
  call void asm sideeffect "", "*m,~{dirflag},~{fpsr},~{flags}"(ptr elementtype(i8) %10) #3, !srcloc !9
  br label %11

11:                                               ; preds = %7, %2
  ret void
}

; Function Attrs: nounwind
declare void @explicit_bzero(ptr noundef, i64 noundef) #1

; Function Attrs: nounwind uwtable
define hidden void @mbedtls_zeroize_and_free(ptr noundef %0, i64 noundef %1) #0 {
  %3 = alloca ptr, align 8
  %4 = alloca i64, align 8
  store ptr %0, ptr %3, align 8, !tbaa !3
  store i64 %1, ptr %4, align 8, !tbaa !7
  %5 = load ptr, ptr %3, align 8, !tbaa !3
  %6 = icmp ne ptr %5, null
  br i1 %6, label %7, label %10

7:                                                ; preds = %2
  %8 = load ptr, ptr %3, align 8, !tbaa !3
  %9 = load i64, ptr %4, align 8, !tbaa !7
  call void @mbedtls_platform_zeroize(ptr noundef %8, i64 noundef %9)
  br label %10

10:                                               ; preds = %7, %2
  %11 = load ptr, ptr %3, align 8, !tbaa !3
  call void @free(ptr noundef %11) #3
  ret void
}

; Function Attrs: nounwind
declare void @free(ptr noundef) #1

; Function Attrs: nounwind uwtable
define hidden ptr @mbedtls_platform_gmtime_r(ptr noundef %0, ptr noundef %1) #0 {
  %3 = alloca ptr, align 8
  %4 = alloca ptr, align 8
  store ptr %0, ptr %3, align 8, !tbaa !10
  store ptr %1, ptr %4, align 8, !tbaa !12
  %5 = load ptr, ptr %3, align 8, !tbaa !10
  %6 = load ptr, ptr %4, align 8, !tbaa !12
  %7 = call ptr @gmtime_r(ptr noundef %5, ptr noundef %6) #3
  ret ptr %7
}

; Function Attrs: nounwind
declare ptr @gmtime_r(ptr noundef, ptr noundef) #1

; Function Attrs: nounwind uwtable
define hidden i64 @mbedtls_ms_time() #0 {
  %1 = alloca i64, align 8
  %2 = alloca i32, align 4
  %3 = alloca %struct.timespec, align 8
  %4 = alloca i64, align 8
  %5 = alloca i32, align 4
  call void @llvm.lifetime.start.p0(i64 4, ptr %2) #3
  call void @llvm.lifetime.start.p0(i64 16, ptr %3) #3
  call void @llvm.lifetime.start.p0(i64 8, ptr %4) #3
  %6 = call i32 @clock_gettime(i32 noundef 7, ptr noundef %3) #3
  store i32 %6, ptr %2, align 4, !tbaa !14
  %7 = load i32, ptr %2, align 4, !tbaa !14
  %8 = icmp ne i32 %7, 0
  br i1 %8, label %9, label %12

9:                                                ; preds = %0
  %10 = call i64 @time(ptr noundef null) #3
  %11 = mul nsw i64 %10, 1000
  store i64 %11, ptr %1, align 8
  store i32 1, ptr %5, align 4
  br label %21

12:                                               ; preds = %0
  %13 = getelementptr inbounds nuw %struct.timespec, ptr %3, i32 0, i32 0
  %14 = load i64, ptr %13, align 8, !tbaa !16
  store i64 %14, ptr %4, align 8, !tbaa !7
  %15 = load i64, ptr %4, align 8, !tbaa !7
  %16 = mul nsw i64 %15, 1000
  %17 = getelementptr inbounds nuw %struct.timespec, ptr %3, i32 0, i32 1
  %18 = load i64, ptr %17, align 8, !tbaa !18
  %19 = sdiv i64 %18, 1000000
  %20 = add nsw i64 %16, %19
  store i64 %20, ptr %1, align 8
  store i32 1, ptr %5, align 4
  br label %21

21:                                               ; preds = %12, %9
  call void @llvm.lifetime.end.p0(i64 8, ptr %4) #3
  call void @llvm.lifetime.end.p0(i64 16, ptr %3) #3
  call void @llvm.lifetime.end.p0(i64 4, ptr %2) #3
  %22 = load i64, ptr %1, align 8
  ret i64 %22
}

; Function Attrs: nocallback nofree nosync nounwind willreturn memory(argmem: readwrite)
declare void @llvm.lifetime.start.p0(i64 immarg, ptr captures(none)) #2

; Function Attrs: nounwind
declare i32 @clock_gettime(i32 noundef, ptr noundef) #1

; Function Attrs: nounwind
declare i64 @time(ptr noundef) #1

; Function Attrs: nocallback nofree nosync nounwind willreturn memory(argmem: readwrite)
declare void @llvm.lifetime.end.p0(i64 immarg, ptr captures(none)) #2


!llvm.module.flags = !{!0, !1, !2}

!0 = !{i32 1, !"wchar_size", i32 4}
!1 = !{i32 8, !"PIC Level", i32 2}
!2 = !{i32 7, !"uwtable", i32 2}
!3 = !{!4, !4, i64 0}
!4 = !{!"any pointer", !5, i64 0}
!5 = !{!"omnipotent char", !6, i64 0}
!6 = !{!"Simple C/C++ TBAA"}
!7 = !{!8, !8, i64 0}
!8 = !{!"long", !5, i64 0}
!9 = !{i64 4435}
!10 = !{!11, !11, i64 0}
!11 = !{!"p1 long", !4, i64 0}
!12 = !{!13, !13, i64 0}
!13 = !{!"p1 _ZTS2tm", !4, i64 0}
!14 = !{!15, !15, i64 0}
!15 = !{!"int", !5, i64 0}
!16 = !{!17, !8, i64 0}
!17 = !{!"timespec", !8, i64 0, !8, i64 8}
!18 = !{!17, !8, i64 8}
