; ModuleID = 'bench/lief/original/platform_util.ll'
source_filename = "bench/lief/original/platform_util.ll"
target datalayout = "e-m:e-p270:32:32-p271:32:32-p272:64:64-i64:64-i128:128-f80:128-n8:16:32:64-S128"
target triple = "x86_64-pc-linux-gnu"

%struct.timespec = type { i64, i64 }

; Function Attrs: nounwind uwtable
define hidden void @mbedtls_platform_zeroize(ptr noundef %0, i64 noundef %1) local_unnamed_addr #0 {
  %.not = icmp eq i64 %1, 0
  br i1 %.not, label %4, label %3

3:                                                ; preds = %2
  tail call void @explicit_bzero(ptr noundef %0, i64 noundef %1) #4
  tail call void asm sideeffect "", "*m,~{dirflag},~{fpsr},~{flags}"(ptr elementtype(i8) %0) #4, !srcloc !3
  br label %4

4:                                                ; preds = %3, %2
  ret void
}

; Function Attrs: nounwind
declare void @explicit_bzero(ptr noundef, i64 noundef) local_unnamed_addr #1

; Function Attrs: nounwind uwtable
define hidden void @mbedtls_zeroize_and_free(ptr noundef %0, i64 noundef %1) local_unnamed_addr #0 {
  %.not = icmp eq ptr %0, null
  %.not.i = icmp eq i64 %1, 0
  %or.cond = or i1 %.not, %.not.i
  br i1 %or.cond, label %mbedtls_platform_zeroize.exit, label %3

3:                                                ; preds = %2
  tail call void @explicit_bzero(ptr noundef nonnull %0, i64 noundef %1) #4
  tail call void asm sideeffect "", "*m,~{dirflag},~{fpsr},~{flags}"(ptr nonnull elementtype(i8) %0) #4, !srcloc !3
  br label %mbedtls_platform_zeroize.exit

mbedtls_platform_zeroize.exit:                    ; preds = %3, %2
  tail call void @free(ptr noundef %0) #4
  ret void
}

; Function Attrs: mustprogress nounwind willreturn allockind("free") memory(argmem: readwrite, inaccessiblemem: readwrite)
declare void @free(ptr allocptr noundef captures(none)) local_unnamed_addr #2

; Function Attrs: nounwind uwtable
define hidden ptr @mbedtls_platform_gmtime_r(ptr noundef %0, ptr noundef %1) local_unnamed_addr #0 {
  %3 = tail call ptr @gmtime_r(ptr noundef %0, ptr noundef %1) #4
  ret ptr %3
}

; Function Attrs: nounwind
declare ptr @gmtime_r(ptr noundef, ptr noundef) local_unnamed_addr #1

; Function Attrs: nounwind uwtable
define hidden i64 @mbedtls_ms_time() local_unnamed_addr #0 {
  %1 = alloca %struct.timespec, align 8
  call void @llvm.lifetime.start.p0(i64 16, ptr nonnull %1) #4
  %2 = call i32 @clock_gettime(i32 noundef 7, ptr noundef nonnull %1) #4
  %.not = icmp eq i32 %2, 0
  br i1 %.not, label %6, label %3

3:                                                ; preds = %0
  %4 = call i64 @time(ptr noundef null) #4
  %5 = mul nsw i64 %4, 1000
  br label %13

6:                                                ; preds = %0
  %7 = load i64, ptr %1, align 8, !tbaa !4
  %8 = mul nsw i64 %7, 1000
  %9 = getelementptr inbounds nuw i8, ptr %1, i64 8
  %10 = load i64, ptr %9, align 8, !tbaa !9
  %11 = sdiv i64 %10, 1000000
  %12 = add nsw i64 %11, %8
  br label %13

13:                                               ; preds = %6, %3
  %.0 = phi i64 [ %5, %3 ], [ %12, %6 ]
  call void @llvm.lifetime.end.p0(i64 16, ptr nonnull %1) #4
  ret i64 %.0
}

; Function Attrs: mustprogress nocallback nofree nosync nounwind willreturn memory(argmem: readwrite)
declare void @llvm.lifetime.start.p0(i64 immarg, ptr captures(none)) #3

; Function Attrs: nounwind
declare i32 @clock_gettime(i32 noundef, ptr noundef) local_unnamed_addr #1

; Function Attrs: nounwind
declare i64 @time(ptr noundef) local_unnamed_addr #1

; Function Attrs: mustprogress nocallback nofree nosync nounwind willreturn memory(argmem: readwrite)
declare void @llvm.lifetime.end.p0(i64 immarg, ptr captures(none)) #3


!llvm.module.flags = !{!0, !1, !2}

!0 = !{i32 1, !"wchar_size", i32 4}
!1 = !{i32 8, !"PIC Level", i32 2}
!2 = !{i32 7, !"uwtable", i32 2}
!3 = !{i64 4435}
!4 = !{!5, !6, i64 0}
!5 = !{!"timespec", !6, i64 0, !6, i64 8}
!6 = !{!"long", !7, i64 0}
!7 = !{!"omnipotent char", !8, i64 0}
!8 = !{!"Simple C/C++ TBAA"}
!9 = !{!5, !6, i64 8}
